target datalayout = "e-m:e-p270:32:32-p271:32:32-p272:64:64-i64:64-i128:128-f80:128-n8:16:32:64-S128"
target triple = "x86_64-pc-linux-gnu"

%"struct.duckdb::MetaBlockPointer" = type { i64, i32, i32 }
%"struct.duckdb::BlockPointer" = type { i64, i32, i32 }

; Function Attrs: mustprogress uwtable
define linkonce_odr noundef i32 @_ZN6duckdb11NumericCastIjmvEET_T0_(i64 noundef %0) #2 comdat {
  %2 = alloca i64, align 8
  store i64 %0, ptr %2, align 8, !tbaa !16
  %3 = load i64, ptr %2, align 8, !tbaa !16
  %4 = call noundef i32 @_ZN6duckdb15NumericCastImplIjmLb0EE7ConvertEm(i64 noundef %3)
  ret i32 %4
}

; Function Attrs: mustprogress nounwind uwtable
define noundef i32 @_ZNK6duckdb16MetaBlockPointer13GetBlockIndexEv(ptr noundef nonnull align 8 dereferenceable(16) %0) #0 align 2 {
  %2 = alloca ptr, align 8
  store ptr %0, ptr %2, align 8, !tbaa !125
  %3 = load ptr, ptr %2, align 8
  %4 = getelementptr inbounds nuw %"struct.duckdb::MetaBlockPointer", ptr %3, i32 0, i32 0
  %5 = load i64, ptr %4, align 8, !tbaa !127
  %6 = lshr i64 %5, 56
  %7 = trunc i64 %6 to i32
  ret i32 %7
}

; Function Attrs: mustprogress nounwind uwtable
define noundef i64 @_ZNK6duckdb16MetaBlockPointer10GetBlockIdEv(ptr noundef nonnull align 8 dereferenceable(16) %0) #0 align 2 {
  %2 = alloca ptr, align 8
  store ptr %0, ptr %2, align 8, !tbaa !125
  %3 = load ptr, ptr %2, align 8
  %4 = getelementptr inbounds nuw %"struct.duckdb::MetaBlockPointer", ptr %3, i32 0, i32 0
  %5 = load i64, ptr %4, align 8, !tbaa !127
  %6 = and i64 %5, 72057594037927935
  ret i64 %6
}

; Function Attrs: mustprogress nounwind uwtable
define linkonce_odr void @_ZN6duckdb12BlockPointerC2Ev(ptr noundef nonnull align 8 dereferenceable(16) %0) unnamed_addr #0 comdat align 2 {
  %2 = alloca ptr, align 8
  store ptr %0, ptr %2, align 8, !tbaa !135
  %3 = load ptr, ptr %2, align 8
  %4 = getelementptr inbounds nuw %"struct.duckdb::BlockPointer", ptr %3, i32 0, i32 0
  store i64 -1, ptr %4, align 8, !tbaa !132
  %5 = getelementptr inbounds nuw %"struct.duckdb::BlockPointer", ptr %3, i32 0, i32 1
  store i32 0, ptr %5, align 8, !tbaa !134
  %6 = getelementptr inbounds nuw %"struct.duckdb::BlockPointer", ptr %3, i32 0, i32 2
  store i32 0, ptr %6, align 4, !tbaa !137
  ret void
}

; Function Attrs: mustprogress uwtable
define { i64, i64 } @_ZN6duckdb15MetadataManager14ToBlockPointerENS_16MetaBlockPointerEm(i64 %0, i64 %1, i64 noundef %2) #2 align 2 {
  %4 = alloca %"struct.duckdb::BlockPointer", align 8
  %5 = alloca %"struct.duckdb::MetaBlockPointer", align 8
  %6 = alloca i64, align 8
  %7 = getelementptr inbounds nuw { i64, i64 }, ptr %5, i32 0, i32 0
  store i64 %0, ptr %7, align 8
  %8 = getelementptr inbounds nuw { i64, i64 }, ptr %5, i32 0, i32 1
  store i64 %1, ptr %8, align 8
  store i64 %2, ptr %6, align 8, !tbaa !16
  call void @_ZN6duckdb12BlockPointerC2Ev(ptr noundef nonnull align 8 dereferenceable(16) %4)
  %9 = call noundef i64 @_ZNK6duckdb16MetaBlockPointer10GetBlockIdEv(ptr noundef nonnull align 8 dereferenceable(16) %5)
  %10 = getelementptr inbounds nuw %"struct.duckdb::BlockPointer", ptr %4, i32 0, i32 0
  store i64 %9, ptr %10, align 8, !tbaa !132
  %11 = call noundef i32 @_ZNK6duckdb16MetaBlockPointer13GetBlockIndexEv(ptr noundef nonnull align 8 dereferenceable(16) %5)
  %12 = load i64, ptr %6, align 8, !tbaa !16
  %13 = call noundef i32 @_ZN6duckdb11NumericCastIjmvEET_T0_(i64 noundef %12)
  %14 = mul i32 %11, %13
  %15 = getelementptr inbounds nuw %"struct.duckdb::MetaBlockPointer", ptr %5, i32 0, i32 1
  %16 = load i32, ptr %15, align 8, !tbaa !129
  %17 = add i32 %14, %16
  %18 = getelementptr inbounds nuw %"struct.duckdb::BlockPointer", ptr %4, i32 0, i32 1
  store i32 %17, ptr %18, align 8, !tbaa !134
  %19 = load { i64, i64 }, ptr %4, align 8
  ret { i64, i64 } %19
}