; Function Attrs: mustprogress uwtable
define { i64, i64 } @_ZN6duckdb15MetadataManager14ToBlockPointerENS_16MetaBlockPointerEm(i64 %0, i64 %1, i64 noundef %2) local_unnamed_addr #2 align 2 {
  %.sroa.3.8.extract.trunc = trunc i64 %1 to i32
  %4 = and i64 %0, 72057594037927935
  %5 = lshr i64 %0, 56
  %6 = trunc nuw nsw i64 %5 to i32
  %7 = tail call noundef i32 @_ZN6duckdb15NumericCastImplIjmLb0EE7ConvertEm(i64 noundef %2)
  %8 = mul i32 %7, %6
  %9 = add i32 %8, %.sroa.3.8.extract.trunc
  %.fca.0.insert = insertvalue { i64, i64 } poison, i64 %4, 0
  %.sroa.33.8.insert.ext = zext i32 %9 to i64
  %.fca.1.insert = insertvalue { i64, i64 } %.fca.0.insert, i64 %.sroa.33.8.insert.ext, 1
  ret { i64, i64 } %.fca.1.insert
}